target datalayout = "e-m:e-p270:32:32-p271:32:32-p272:64:64-i64:64-i128:128-f80:128-n8:16:32:64-S128"
target triple = "x86_64-pc-linux-gnu"

%"class.open_spiel::algorithms::MDPNode" = type { i8, double, %"class.absl::debian2::flat_hash_map", double, %"class.std::__cxx11::basic_string" }
%"class.absl::debian2::flat_hash_map" = type { %"class.absl::debian2::container_internal::raw_hash_map" }
%"class.absl::debian2::container_internal::raw_hash_map" = type { %"class.absl::debian2::container_internal::raw_hash_set" }
%"class.absl::debian2::container_internal::raw_hash_set" = type { ptr, ptr, i64, i64, %"class.absl::debian2::container_internal::CompressedTuple" }
%"class.absl::debian2::container_internal::CompressedTuple" = type { %"struct.absl::debian2::container_internal::internal_compressed_tuple::CompressedTupleImpl" }
%"struct.absl::debian2::container_internal::internal_compressed_tuple::CompressedTupleImpl" = type { %"struct.absl::debian2::container_internal::internal_compressed_tuple::Storage" }
%"struct.absl::debian2::container_internal::internal_compressed_tuple::Storage" = type { i64 }
%"class.std::__cxx11::basic_string" = type { %"struct.std::__cxx11::basic_string<char>::_Alloc_hider", i64, %union.anon }
%"struct.std::__cxx11::basic_string<char>::_Alloc_hider" = type { ptr }
%union.anon = type { i64, [8 x i8] }

@.str = private unnamed_addr constant [149 x i8] c"generated/home/dtcxzyw/WorkSpace/Projects/compilers/llvm-opt-benchmark/bench/openspiel/open_spiel/open_spiel/algorithms/tabular_best_response_mdp.cc\00", align 1
@.str.1 = private unnamed_addr constant [2 x i8] c":\00", align 1
@.str.2 = private unnamed_addr constant [13 x i8] c" CHECK_TRUE(\00", align 1
@.str.3 = private unnamed_addr constant [17 x i8] c"child != nullptr\00", align 1
@.str.4 = private unnamed_addr constant [2 x i8] c")\00", align 1

; Function Attrs: mustprogress uwtable
define void @_ZN10open_spiel10algorithms7MDPNode19IncTransitionWeightElPS1_d(ptr noundef nonnull align 8 dereferenceable(96) %0, i64 noundef %1, ptr noundef %2, double noundef %3) #4 align 2 personality ptr @__gxx_personality_v0 {
  %5 = alloca ptr, align 8
  %6 = alloca i64, align 8
  %7 = alloca ptr, align 8
  %8 = alloca double, align 8
  %9 = alloca %"class.std::__cxx11::basic_string", align 8
  %10 = alloca i32, align 4
  %11 = alloca ptr, align 8
  %12 = alloca i32, align 4
  store ptr %0, ptr %5, align 8
  store i64 %1, ptr %6, align 8
  store ptr %2, ptr %7, align 8
  store double %3, ptr %8, align 8
  %13 = load ptr, ptr %5, align 8
  br label %14

14:                                               ; preds = %4
  %15 = load ptr, ptr %7, align 8
  %16 = icmp ne ptr %15, null
  %17 = xor i1 %16, true
  br i1 %17, label %18, label %24

18:                                               ; preds = %14
  store i32 41, ptr %10, align 4
  call void @_ZN10open_spiel8internal11SpielStrCatIJRA149_KcRA2_S2_iRA13_S2_RA17_S2_S6_EEENSt7__cxx1112basic_stringIcSt11char_traitsIcESaIcEEEDpOT_(ptr dead_on_unwind writable sret(%"class.std::__cxx11::basic_string") align 8 %9, ptr noundef nonnull align 1 dereferenceable(149) @.str, ptr noundef nonnull align 1 dereferenceable(2) @.str.1, ptr noundef nonnull align 4 dereferenceable(4) %10, ptr noundef nonnull align 1 dereferenceable(13) @.str.2, ptr noundef nonnull align 1 dereferenceable(17) @.str.3, ptr noundef nonnull align 1 dereferenceable(2) @.str.4)
  invoke void @_ZN10open_spiel15SpielFatalErrorERKNSt7__cxx1112basic_stringIcSt11char_traitsIcESaIcEEE(ptr noundef nonnull align 8 dereferenceable(32) %9) #17
          to label %19 unwind label %20

19:                                               ; preds = %18
  unreachable

20:                                               ; preds = %18
  %21 = landingpad { ptr, i32 }
          cleanup
  %22 = extractvalue { ptr, i32 } %21, 0
  store ptr %22, ptr %11, align 8
  %23 = extractvalue { ptr, i32 } %21, 1
  store i32 %23, ptr %12, align 4
  call void @_ZNSt7__cxx1112basic_stringIcSt11char_traitsIcESaIcEED1Ev(ptr noundef nonnull align 8 dereferenceable(32) %9) #3
  br label %31

24:                                               ; preds = %14
  %25 = load double, ptr %8, align 8
  %26 = getelementptr inbounds nuw %"class.open_spiel::algorithms::MDPNode", ptr %13, i32 0, i32 2
  %27 = call noundef nonnull align 8 dereferenceable(40) ptr @_ZN4absl7debian218container_internal12raw_hash_mapINS1_17FlatHashMapPolicyIlNS0_13flat_hash_mapIPN10open_spiel10algorithms7MDPNodeEdNS1_6HashEqIS8_vE4HashENSA_2EqESaISt4pairIKS8_dEEEEEENS0_13hash_internal4HashIlEESt8equal_toIlESaISD_IKlSH_EEEixIlSI_EEDTclsrT0_5valueclL_ZSt9addressofISP_EPT_RSV_EclL_ZSt7declvalIRSP_EDTcl9__declvalISV_ELi0EEEvEEEEERSO_(ptr noundef nonnull align 8 dereferenceable(40) %26, ptr noundef nonnull align 8 dereferenceable(8) %6)
  %28 = call noundef nonnull align 8 dereferenceable(8) ptr @_ZN4absl7debian218container_internal12raw_hash_mapINS1_17FlatHashMapPolicyIPN10open_spiel10algorithms7MDPNodeEdEENS1_6HashEqIS7_vE4HashENSA_2EqESaISt4pairIKS7_dEEEixIS7_S8_EEDTclsrT0_5valueclL_ZSt9addressofISF_EPT_RSL_EclL_ZSt7declvalIRSF_EDTcl9__declvalISL_ELi0EEEvEEEEERKSL_(ptr noundef nonnull align 8 dereferenceable(40) %27, ptr noundef nonnull align 8 dereferenceable(8) %7)
  %29 = load double, ptr %28, align 8
  %30 = fadd double %29, %25
  store double %30, ptr %28, align 8
  ret void

31:                                               ; preds = %20
  %32 = load ptr, ptr %11, align 8
  %33 = load i32, ptr %12, align 4
  %34 = insertvalue { ptr, i32 } poison, ptr %32, 0
  %35 = insertvalue { ptr, i32 } %34, i32 %33, 1
  resume { ptr, i32 } %35
}