; Function Attrs: mustprogress uwtable
define void @_ZN10open_spiel10algorithms7MDPNode19IncTransitionWeightElPS1_d(ptr noundef nonnull align 8 dereferenceable(96) %0, i64 noundef %1, ptr noundef %2, double noundef %3) local_unnamed_addr #3 align 2 personality ptr @__gxx_personality_v0 {
  %5 = alloca i64, align 8
  %6 = alloca ptr, align 8
  %7 = alloca %"class.std::__cxx11::basic_string", align 8
  %8 = alloca i32, align 4
  store i64 %1, ptr %5, align 8
  store ptr %2, ptr %6, align 8
  %.not = icmp eq ptr %2, null
  br i1 %.not, label %9, label %13

9:                                                ; preds = %4
  store i32 41, ptr %8, align 4
  call void @_ZN10open_spiel8internal11SpielStrCatIJRA149_KcRA2_S2_iRA13_S2_RA17_S2_S6_EEENSt7__cxx1112basic_stringIcSt11char_traitsIcESaIcEEEDpOT_(ptr dead_on_unwind nonnull writable sret(%"class.std::__cxx11::basic_string") align 8 %7, ptr noundef nonnull align 1 dereferenceable(149) @.str, ptr noundef nonnull align 1 dereferenceable(2) @.str.1, ptr noundef nonnull align 4 dereferenceable(4) %8, ptr noundef nonnull align 1 dereferenceable(13) @.str.2, ptr noundef nonnull align 1 dereferenceable(17) @.str.3, ptr noundef nonnull align 1 dereferenceable(2) @.str.4)
  invoke void @_ZN10open_spiel15SpielFatalErrorERKNSt7__cxx1112basic_stringIcSt11char_traitsIcESaIcEEE(ptr noundef nonnull align 8 dereferenceable(32) %7) #25
          to label %10 unwind label %11

10:                                               ; preds = %9
  unreachable

11:                                               ; preds = %9
  %12 = landingpad { ptr, i32 }
          cleanup
  call void @_ZNSt7__cxx1112basic_stringIcSt11char_traitsIcESaIcEED1Ev(ptr noundef nonnull align 8 dereferenceable(32) %7) #23
  resume { ptr, i32 } %12

13:                                               ; preds = %4
  %14 = getelementptr inbounds nuw i8, ptr %0, i64 16
  %15 = call noundef nonnull align 8 dereferenceable(40) ptr @_ZN4absl7debian218container_internal12raw_hash_mapINS1_17FlatHashMapPolicyIlNS0_13flat_hash_mapIPN10open_spiel10algorithms7MDPNodeEdNS1_6HashEqIS8_vE4HashENSA_2EqESaISt4pairIKS8_dEEEEEENS0_13hash_internal4HashIlEESt8equal_toIlESaISD_IKlSH_EEEixIlSI_EEDTclsrT0_5valueclL_ZSt9addressofISP_EPT_RSV_EclL_ZSt7declvalIRSP_EDTcl9__declvalISV_ELi0EEEvEEEEERSO_(ptr noundef nonnull align 8 dereferenceable(40) %14, ptr noundef nonnull align 8 dereferenceable(8) %5)
  %16 = call noundef nonnull align 8 dereferenceable(8) ptr @_ZN4absl7debian218container_internal12raw_hash_mapINS1_17FlatHashMapPolicyIPN10open_spiel10algorithms7MDPNodeEdEENS1_6HashEqIS7_vE4HashENSA_2EqESaISt4pairIKS7_dEEEixIS7_S8_EEDTclsrT0_5valueclL_ZSt9addressofISF_EPT_RSL_EclL_ZSt7declvalIRSF_EDTcl9__declvalISL_ELi0EEEvEEEEERKSL_(ptr noundef nonnull align 8 dereferenceable(40) %15, ptr noundef nonnull align 8 dereferenceable(8) %6)
  %17 = load double, ptr %16, align 8
  %18 = fadd double %3, %17
  store double %18, ptr %16, align 8
  ret void
}